target datalayout = "e-m:e-p270:32:32-p271:32:32-p272:64:64-i64:64-i128:128-f80:128-n8:16:32:64-S128"
target triple = "x86_64-pc-linux-gnu"

%struct._output_fields = type { i8, i8, i8, i8, i8, ptr, ptr, ptr, ptr, ptr, i8, i8, i8 }

; Function Attrs: null_pointer_is_valid sspstrong uwtable
define ptr @output_fields_new() #0 {
  %1 = alloca ptr, align 8
  %2 = alloca i64, align 8
  %3 = alloca i64, align 8
  %4 = alloca ptr, align 8
  %5 = alloca ptr, align 8
  call void @llvm.lifetime.start.p0(i64 8, ptr %1) #15
  call void @llvm.lifetime.start.p0(i64 8, ptr %2) #15
  store i64 1, ptr %2, align 8
  call void @llvm.lifetime.start.p0(i64 8, ptr %3) #15
  store i64 56, ptr %3, align 8
  call void @llvm.lifetime.start.p0(i64 8, ptr %4) #15
  %6 = load i64, ptr %3, align 8
  %7 = icmp eq i64 %6, 1
  br i1 %7, label %8, label %11

8:                                                ; preds = %0
  %9 = load i64, ptr %2, align 8
  %10 = call noalias ptr @g_malloc(i64 noundef %9) #18
  store ptr %10, ptr %4, align 8
  br label %32

11:                                               ; preds = %0
  %12 = load i64, ptr %2, align 8
  %13 = call i1 @llvm.is.constant.i64(i64 %12)
  br i1 %13, label %14, label %27

14:                                               ; preds = %11
  %15 = load i64, ptr %3, align 8
  %16 = icmp eq i64 %15, 0
  br i1 %16, label %22, label %17

17:                                               ; preds = %14
  %18 = load i64, ptr %2, align 8
  %19 = load i64, ptr %3, align 8
  %20 = udiv i64 -1, %19
  %21 = icmp ule i64 %18, %20
  br i1 %21, label %22, label %27

22:                                               ; preds = %17, %14
  %23 = load i64, ptr %2, align 8
  %24 = load i64, ptr %3, align 8
  %25 = mul i64 %23, %24
  %26 = call noalias ptr @g_malloc(i64 noundef %25) #18
  store ptr %26, ptr %4, align 8
  br label %31

27:                                               ; preds = %17, %11
  %28 = load i64, ptr %2, align 8
  %29 = load i64, ptr %3, align 8
  %30 = call noalias ptr @g_malloc_n(i64 noundef %28, i64 noundef %29) #19
  store ptr %30, ptr %4, align 8
  br label %31

31:                                               ; preds = %27, %22
  br label %32

32:                                               ; preds = %31, %8
  %33 = load ptr, ptr %4, align 8
  store ptr %33, ptr %5, align 8
  call void @llvm.lifetime.end.p0(i64 8, ptr %4) #15
  call void @llvm.lifetime.end.p0(i64 8, ptr %3) #15
  call void @llvm.lifetime.end.p0(i64 8, ptr %2) #15
  %34 = load ptr, ptr %5, align 8
  store ptr %34, ptr %1, align 8
  %35 = load ptr, ptr %1, align 8
  %36 = getelementptr inbounds nuw %struct._output_fields, ptr %35, i32 0, i32 0
  store i8 0, ptr %36, align 8
  %37 = load ptr, ptr %1, align 8
  %38 = getelementptr inbounds nuw %struct._output_fields, ptr %37, i32 0, i32 1
  store i8 0, ptr %38, align 1
  %39 = load ptr, ptr %1, align 8
  %40 = getelementptr inbounds nuw %struct._output_fields, ptr %39, i32 0, i32 2
  store i8 9, ptr %40, align 2
  %41 = load ptr, ptr %1, align 8
  %42 = getelementptr inbounds nuw %struct._output_fields, ptr %41, i32 0, i32 3
  store i8 97, ptr %42, align 1
  %43 = load ptr, ptr %1, align 8
  %44 = getelementptr inbounds nuw %struct._output_fields, ptr %43, i32 0, i32 4
  store i8 44, ptr %44, align 4
  %45 = load ptr, ptr %1, align 8
  %46 = getelementptr inbounds nuw %struct._output_fields, ptr %45, i32 0, i32 5
  store ptr null, ptr %46, align 8
  %47 = load ptr, ptr %1, align 8
  %48 = getelementptr inbounds nuw %struct._output_fields, ptr %47, i32 0, i32 6
  store ptr null, ptr %48, align 8
  %49 = load ptr, ptr %1, align 8
  %50 = getelementptr inbounds nuw %struct._output_fields, ptr %49, i32 0, i32 7
  store ptr null, ptr %50, align 8
  %51 = load ptr, ptr %1, align 8
  %52 = getelementptr inbounds nuw %struct._output_fields, ptr %51, i32 0, i32 8
  store ptr null, ptr %52, align 8
  %53 = load ptr, ptr %1, align 8
  %54 = getelementptr inbounds nuw %struct._output_fields, ptr %53, i32 0, i32 9
  store ptr null, ptr %54, align 8
  %55 = load ptr, ptr %1, align 8
  %56 = getelementptr inbounds nuw %struct._output_fields, ptr %55, i32 0, i32 10
  store i8 0, ptr %56, align 8
  %57 = load ptr, ptr %1, align 8
  %58 = getelementptr inbounds nuw %struct._output_fields, ptr %57, i32 0, i32 11
  store i8 1, ptr %58, align 1
  %59 = load ptr, ptr %1, align 8
  %60 = getelementptr inbounds nuw %struct._output_fields, ptr %59, i32 0, i32 12
  store i8 0, ptr %60, align 2
  %61 = load ptr, ptr %1, align 8
  call void @llvm.lifetime.end.p0(i64 8, ptr %1) #15
  ret ptr %61
}