; Function Attrs: null_pointer_is_valid sspstrong uwtable
define noalias noundef ptr @output_fields_new() local_unnamed_addr #0 {
  %1 = tail call noalias dereferenceable_or_null(56) ptr @g_malloc(i64 noundef 56) #26
  store i8 0, ptr %1, align 8
  %2 = getelementptr inbounds nuw i8, ptr %1, i64 1
  store i8 0, ptr %2, align 1
  %3 = getelementptr inbounds nuw i8, ptr %1, i64 2
  store i8 9, ptr %3, align 2
  %4 = getelementptr inbounds nuw i8, ptr %1, i64 3
  store i8 97, ptr %4, align 1
  %5 = getelementptr inbounds nuw i8, ptr %1, i64 4
  store i8 44, ptr %5, align 4
  %6 = getelementptr inbounds nuw i8, ptr %1, i64 8
  %7 = getelementptr inbounds nuw i8, ptr %1, i64 49
  tail call void @llvm.memset.p0.i64(ptr noundef nonnull align 8 dereferenceable(41) %6, i8 0, i64 41, i1 false)
  store i8 1, ptr %7, align 1
  %8 = getelementptr inbounds nuw i8, ptr %1, i64 50
  store i8 0, ptr %8, align 2
  ret ptr %1
}